; Function Attrs: mustprogress uwtable
define internal void @"_ZNSt17_Function_handlerIFvRKNSt7__cxx1112basic_stringIcSt11char_traitsIcESaIcEEEN3nix3git9TreeEntryEEZZNS8_22GitTest_tree_read_Test8TestBodyEvENK3$_0clIS5_EEDaRKT_EUlRSF_T0_E_E9_M_invokeERKSt9_Any_dataS7_OSA_"(ptr nocapture noundef nonnull readonly align 8 dereferenceable(16) %0, ptr noundef nonnull align 8 dereferenceable(32) %1, ptr nocapture noundef nonnull readonly align 8 dereferenceable(88) %2) #4 align 2 personality ptr @__gxx_personality_v0 {
  %4 = alloca %"class.std::__cxx11::basic_string", align 8
  %5 = alloca %"struct.nix::git::TreeEntry", align 8
  call void @llvm.lifetime.start.p0(i64 88, ptr nonnull %5)
  call void @llvm.memcpy.p0.p0.i64(ptr noundef nonnull align 8 dereferenceable(88) %5, ptr noundef nonnull align 8 dereferenceable(88) %2, i64 88, i1 false)
  call void @llvm.lifetime.start.p0(i64 32, ptr nonnull %4)
  call void @_ZNSt7__cxx1112basic_stringIcSt11char_traitsIcESaIcEEC2ERKS4_(ptr noundef nonnull align 8 dereferenceable(32) %4, ptr noundef nonnull align 8 dereferenceable(32) %1)
  %6 = load i32, ptr %5, align 8
  %7 = icmp eq i32 %6, 16384
  br i1 %7, label %8, label %27

8:                                                ; preds = %3
  %9 = getelementptr inbounds i8, ptr %4, i64 8
  %10 = load i64, ptr %9, align 8
  %11 = add i64 %10, 1
  %12 = load ptr, ptr %4, align 8
  %13 = getelementptr inbounds i8, ptr %4, i64 16
  %14 = icmp eq ptr %12, %13
  br i1 %14, label %15, label %_ZNKSt7__cxx1112basic_stringIcSt11char_traitsIcESaIcEE8capacityEv.exit.i.i.i.i.i

15:                                               ; preds = %8
  %16 = icmp ult i64 %10, 16
  call void @llvm.assume(i1 %16)
  br label %_ZNKSt7__cxx1112basic_stringIcSt11char_traitsIcESaIcEE8capacityEv.exit.i.i.i.i.i

_ZNKSt7__cxx1112basic_stringIcSt11char_traitsIcESaIcEE8capacityEv.exit.i.i.i.i.i: ; preds = %15, %8
  %17 = load i64, ptr %13, align 8
  %18 = select i1 %14, i64 15, i64 %17
  %19 = icmp ugt i64 %11, %18
  br i1 %19, label %20, label %_ZNSt7__cxx1112basic_stringIcSt11char_traitsIcESaIcEEpLEc.exit.i.i.i

20:                                               ; preds = %_ZNKSt7__cxx1112basic_stringIcSt11char_traitsIcESaIcEE8capacityEv.exit.i.i.i.i.i
  invoke void @_ZNSt7__cxx1112basic_stringIcSt11char_traitsIcESaIcEE9_M_mutateEmmPKcm(ptr noundef nonnull align 8 dereferenceable(32) %4, i64 noundef %10, i64 noundef 0, ptr noundef null, i64 noundef 1)
          to label %.noexc.i.i.i unwind label %25

.noexc.i.i.i:                                     ; preds = %20
  %.pre.i.i.i.i.i = load ptr, ptr %4, align 8
  br label %_ZNSt7__cxx1112basic_stringIcSt11char_traitsIcESaIcEEpLEc.exit.i.i.i

_ZNSt7__cxx1112basic_stringIcSt11char_traitsIcESaIcEEpLEc.exit.i.i.i: ; preds = %.noexc.i.i.i, %_ZNKSt7__cxx1112basic_stringIcSt11char_traitsIcESaIcEE8capacityEv.exit.i.i.i.i.i
  %21 = phi ptr [ %.pre.i.i.i.i.i, %.noexc.i.i.i ], [ %12, %_ZNKSt7__cxx1112basic_stringIcSt11char_traitsIcESaIcEE8capacityEv.exit.i.i.i.i.i ]
  %22 = getelementptr inbounds i8, ptr %21, i64 %10
  store i8 47, ptr %22, align 1
  store i64 %11, ptr %9, align 8
  %23 = load ptr, ptr %4, align 8
  %24 = getelementptr inbounds i8, ptr %23, i64 %11
  store i8 0, ptr %24, align 1
  br label %27

25:                                               ; preds = %27, %20
  %26 = landingpad { ptr, i32 }
          cleanup
  call void @_ZNSt7__cxx1112basic_stringIcSt11char_traitsIcESaIcEED2Ev(ptr noundef nonnull align 8 dereferenceable(32) %4) #24
  resume { ptr, i32 } %26

27:                                               ; preds = %_ZNSt7__cxx1112basic_stringIcSt11char_traitsIcESaIcEEpLEc.exit.i.i.i, %3
  %28 = load ptr, ptr %0, align 8
  %29 = invoke { ptr, i8 } @_ZNSt3mapINSt7__cxx1112basic_stringIcSt11char_traitsIcESaIcEEEN3nix3git9TreeEntryESt4lessIS5_ESaISt4pairIKS5_S8_EEE16insert_or_assignIS8_EESB_ISt17_Rb_tree_iteratorISD_EbERSC_OT_(ptr noundef nonnull align 8 dereferenceable(48) %28, ptr noundef nonnull align 8 dereferenceable(32) %4, ptr noundef nonnull align 8 dereferenceable(88) %5)
          to label %30 unwind label %25

30:                                               ; preds = %27
  %31 = load ptr, ptr %4, align 8
  %32 = getelementptr inbounds i8, ptr %4, i64 16
  %33 = icmp eq ptr %31, %32
  br i1 %33, label %_ZNKSt7__cxx1112basic_stringIcSt11char_traitsIcESaIcEE11_M_is_localEv.exit.thread.i.i.i.i.i, label %_ZNKSt7__cxx1112basic_stringIcSt11char_traitsIcESaIcEE11_M_is_localEv.exit.i.i.i.i.i

_ZNKSt7__cxx1112basic_stringIcSt11char_traitsIcESaIcEE11_M_is_localEv.exit.thread.i.i.i.i.i: ; preds = %30
  %34 = getelementptr inbounds i8, ptr %4, i64 8
  %35 = load i64, ptr %34, align 8
  %36 = icmp ult i64 %35, 16
  call void @llvm.assume(i1 %36)
  br label %"_ZSt10__invoke_rIvRZZN3nix22GitTest_tree_read_Test8TestBodyEvENK3$_0clINSt7__cxx1112basic_stringIcSt11char_traitsIcESaIcEEEEEDaRKT_EUlRSA_T0_E_JRKS9_NS0_3git9TreeEntryEEENSt9enable_ifIX16is_invocable_r_vISA_SE_DpT1_EESA_E4typeEOSE_DpOSM_.exit"

_ZNKSt7__cxx1112basic_stringIcSt11char_traitsIcESaIcEE11_M_is_localEv.exit.i.i.i.i.i: ; preds = %30
  call void @_ZdlPv(ptr noundef %31) #27
  br label %"_ZSt10__invoke_rIvRZZN3nix22GitTest_tree_read_Test8TestBodyEvENK3$_0clINSt7__cxx1112basic_stringIcSt11char_traitsIcESaIcEEEEEDaRKT_EUlRSA_T0_E_JRKS9_NS0_3git9TreeEntryEEENSt9enable_ifIX16is_invocable_r_vISA_SE_DpT1_EESA_E4typeEOSE_DpOSM_.exit"

"_ZSt10__invoke_rIvRZZN3nix22GitTest_tree_read_Test8TestBodyEvENK3$_0clINSt7__cxx1112basic_stringIcSt11char_traitsIcESaIcEEEEEDaRKT_EUlRSA_T0_E_JRKS9_NS0_3git9TreeEntryEEENSt9enable_ifIX16is_invocable_r_vISA_SE_DpT1_EESA_E4typeEOSE_DpOSM_.exit": ; preds = %_ZNKSt7__cxx1112basic_stringIcSt11char_traitsIcESaIcEE11_M_is_localEv.exit.thread.i.i.i.i.i, %_ZNKSt7__cxx1112basic_stringIcSt11char_traitsIcESaIcEE11_M_is_localEv.exit.i.i.i.i.i
  call void @_ZNSaIcED2Ev(ptr noundef nonnull align 1 dereferenceable(1) %4) #24
  call void @llvm.lifetime.end.p0(i64 88, ptr nonnull %5)
  call void @llvm.lifetime.end.p0(i64 32, ptr nonnull %4)
  ret void
}